target datalayout = "e-m:e-p270:32:32-p271:32:32-p272:64:64-i64:64-i128:128-f80:128-n8:16:32:64-S128"
target triple = "x86_64-pc-linux-gnu"

@UseLibmIntrinsic = external global i8, align 1
@_ZN12StubRoutines5_dsinE = external global ptr, align 8
@_ZN12StubRoutines5_dcosE = external global ptr, align 8
@_ZN12StubRoutines5_dtanE = external global ptr, align 8
@_ZN12StubRoutines5_dexpE = external global ptr, align 8
@_ZN12StubRoutines5_dpowE = external global ptr, align 8
@_ZN12StubRoutines5_dlogE = external global ptr, align 8
@_ZN12StubRoutines7_dlog10E = external global ptr, align 8

; Function Attrs: mustprogress nounwind uwtable
define hidden void @_ZN13StubGenerator19generate_libm_stubsEv(ptr noundef nonnull align 8 dereferenceable(24) %0) #1 align 2 {
  %2 = alloca ptr, align 8
  store ptr %0, ptr %2, align 8
  %3 = load ptr, ptr %2, align 8
  %4 = load i8, ptr @UseLibmIntrinsic, align 1
  %5 = trunc i8 %4 to i1
  br i1 %5, label %6, label %35

6:                                                ; preds = %1
  %7 = call noundef zeroext i1 @_ZN12vmIntrinsics22is_intrinsic_availableE13vmIntrinsicID(i32 noundef 10)
  br i1 %7, label %8, label %10

8:                                                ; preds = %6
  %9 = call noundef ptr @_ZN13StubGenerator16generate_libmSinEv(ptr noundef nonnull align 8 dereferenceable(24) %3)
  store ptr %9, ptr @_ZN12StubRoutines5_dsinE, align 8
  br label %10

10:                                               ; preds = %8, %6
  %11 = call noundef zeroext i1 @_ZN12vmIntrinsics22is_intrinsic_availableE13vmIntrinsicID(i32 noundef 14)
  br i1 %11, label %12, label %14

12:                                               ; preds = %10
  %13 = call noundef ptr @_ZN13StubGenerator16generate_libmCosEv(ptr noundef nonnull align 8 dereferenceable(24) %3)
  store ptr %13, ptr @_ZN12StubRoutines5_dcosE, align 8
  br label %14

14:                                               ; preds = %12, %10
  %15 = call noundef zeroext i1 @_ZN12vmIntrinsics22is_intrinsic_availableE13vmIntrinsicID(i32 noundef 15)
  br i1 %15, label %16, label %18

16:                                               ; preds = %14
  %17 = call noundef ptr @_ZN13StubGenerator16generate_libmTanEv(ptr noundef nonnull align 8 dereferenceable(24) %3)
  store ptr %17, ptr @_ZN12StubRoutines5_dtanE, align 8
  br label %18

18:                                               ; preds = %16, %14
  %19 = call noundef zeroext i1 @_ZN12vmIntrinsics22is_intrinsic_availableE13vmIntrinsicID(i32 noundef 21)
  br i1 %19, label %20, label %22

20:                                               ; preds = %18
  %21 = call noundef ptr @_ZN13StubGenerator16generate_libmExpEv(ptr noundef nonnull align 8 dereferenceable(24) %3)
  store ptr %21, ptr @_ZN12StubRoutines5_dexpE, align 8
  br label %22

22:                                               ; preds = %20, %18
  %23 = call noundef zeroext i1 @_ZN12vmIntrinsics22is_intrinsic_availableE13vmIntrinsicID(i32 noundef 20)
  br i1 %23, label %24, label %26

24:                                               ; preds = %22
  %25 = call noundef ptr @_ZN13StubGenerator16generate_libmPowEv(ptr noundef nonnull align 8 dereferenceable(24) %3)
  store ptr %25, ptr @_ZN12StubRoutines5_dpowE, align 8
  br label %26

26:                                               ; preds = %24, %22
  %27 = call noundef zeroext i1 @_ZN12vmIntrinsics22is_intrinsic_availableE13vmIntrinsicID(i32 noundef 18)
  br i1 %27, label %28, label %30

28:                                               ; preds = %26
  %29 = call noundef ptr @_ZN13StubGenerator16generate_libmLogEv(ptr noundef nonnull align 8 dereferenceable(24) %3)
  store ptr %29, ptr @_ZN12StubRoutines5_dlogE, align 8
  br label %30

30:                                               ; preds = %28, %26
  %31 = call noundef zeroext i1 @_ZN12vmIntrinsics22is_intrinsic_availableE13vmIntrinsicID(i32 noundef 19)
  br i1 %31, label %32, label %34

32:                                               ; preds = %30
  %33 = call noundef ptr @_ZN13StubGenerator18generate_libmLog10Ev(ptr noundef nonnull align 8 dereferenceable(24) %3)
  store ptr %33, ptr @_ZN12StubRoutines7_dlog10E, align 8
  br label %34

34:                                               ; preds = %32, %30
  br label %35

35:                                               ; preds = %34, %1
  ret void
}