; Function Attrs: mustprogress nounwind uwtable
define hidden void @_ZN13StubGenerator19generate_libm_stubsEv(ptr noundef nonnull align 8 dereferenceable(24) %0) local_unnamed_addr #0 align 2 {
  %2 = load i8, ptr @UseLibmIntrinsic, align 1
  %3 = trunc i8 %2 to i1
  br i1 %3, label %4, label %32

4:                                                ; preds = %1
  %5 = tail call noundef zeroext i1 @_ZN12vmIntrinsics22is_intrinsic_availableE13vmIntrinsicID(i32 noundef 10) #12
  br i1 %5, label %6, label %8

6:                                                ; preds = %4
  %7 = tail call noundef ptr @_ZN13StubGenerator16generate_libmSinEv(ptr noundef nonnull align 8 dereferenceable(24) %0) #12
  store ptr %7, ptr @_ZN12StubRoutines5_dsinE, align 8
  br label %8

8:                                                ; preds = %6, %4
  %9 = tail call noundef zeroext i1 @_ZN12vmIntrinsics22is_intrinsic_availableE13vmIntrinsicID(i32 noundef 14) #12
  br i1 %9, label %10, label %12

10:                                               ; preds = %8
  %11 = tail call noundef ptr @_ZN13StubGenerator16generate_libmCosEv(ptr noundef nonnull align 8 dereferenceable(24) %0) #12
  store ptr %11, ptr @_ZN12StubRoutines5_dcosE, align 8
  br label %12

12:                                               ; preds = %10, %8
  %13 = tail call noundef zeroext i1 @_ZN12vmIntrinsics22is_intrinsic_availableE13vmIntrinsicID(i32 noundef 15) #12
  br i1 %13, label %14, label %16

14:                                               ; preds = %12
  %15 = tail call noundef ptr @_ZN13StubGenerator16generate_libmTanEv(ptr noundef nonnull align 8 dereferenceable(24) %0) #12
  store ptr %15, ptr @_ZN12StubRoutines5_dtanE, align 8
  br label %16

16:                                               ; preds = %14, %12
  %17 = tail call noundef zeroext i1 @_ZN12vmIntrinsics22is_intrinsic_availableE13vmIntrinsicID(i32 noundef 21) #12
  br i1 %17, label %18, label %20

18:                                               ; preds = %16
  %19 = tail call noundef ptr @_ZN13StubGenerator16generate_libmExpEv(ptr noundef nonnull align 8 dereferenceable(24) %0) #12
  store ptr %19, ptr @_ZN12StubRoutines5_dexpE, align 8
  br label %20

20:                                               ; preds = %18, %16
  %21 = tail call noundef zeroext i1 @_ZN12vmIntrinsics22is_intrinsic_availableE13vmIntrinsicID(i32 noundef 20) #12
  br i1 %21, label %22, label %24

22:                                               ; preds = %20
  %23 = tail call noundef ptr @_ZN13StubGenerator16generate_libmPowEv(ptr noundef nonnull align 8 dereferenceable(24) %0) #12
  store ptr %23, ptr @_ZN12StubRoutines5_dpowE, align 8
  br label %24

24:                                               ; preds = %22, %20
  %25 = tail call noundef zeroext i1 @_ZN12vmIntrinsics22is_intrinsic_availableE13vmIntrinsicID(i32 noundef 18) #12
  br i1 %25, label %26, label %28

26:                                               ; preds = %24
  %27 = tail call noundef ptr @_ZN13StubGenerator16generate_libmLogEv(ptr noundef nonnull align 8 dereferenceable(24) %0) #12
  store ptr %27, ptr @_ZN12StubRoutines5_dlogE, align 8
  br label %28

28:                                               ; preds = %26, %24
  %29 = tail call noundef zeroext i1 @_ZN12vmIntrinsics22is_intrinsic_availableE13vmIntrinsicID(i32 noundef 19) #12
  br i1 %29, label %30, label %32

30:                                               ; preds = %28
  %31 = tail call noundef ptr @_ZN13StubGenerator18generate_libmLog10Ev(ptr noundef nonnull align 8 dereferenceable(24) %0) #12
  store ptr %31, ptr @_ZN12StubRoutines7_dlog10E, align 8
  br label %32

32:                                               ; preds = %28, %30, %1
  ret void
}